target datalayout = "e-m:e-p270:32:32-p271:32:32-p272:64:64-i64:64-i128:128-f80:128-n8:16:32:64-S128"
target triple = "x86_64-pc-linux-gnu"

%struct._generic_ARKInterp = type { ptr, ptr }
%struct._generic_ARKInterpOps = type { ptr, ptr, ptr, ptr, ptr, ptr, ptr }
%struct._ARKInterpContent_Hermite = type { i32, ptr, ptr, ptr, ptr, double, double, double }
%struct.ARKodeMemRec = type { ptr, double, ptr, i32, i32, double, double, ptr, i32, double, ptr, i32, i32, ptr, ptr, i32, ptr, ptr, i32, ptr, ptr, ptr, ptr, ptr, ptr, ptr, ptr, ptr, ptr, ptr, ptr, ptr, ptr, ptr, i32, ptr, ptr, i32, ptr, i32, ptr, ptr, ptr, ptr, ptr, ptr, ptr, ptr, ptr, ptr, ptr, ptr, ptr, ptr, ptr, ptr, ptr, ptr, ptr, ptr, ptr, ptr, ptr, ptr, ptr, ptr, i32, ptr, ptr, ptr, ptr, ptr, ptr, ptr, i32, ptr, ptr, ptr, i32, ptr, ptr, ptr, ptr, ptr, ptr, ptr, i32, i32, i32, i32, double, double, double, double, double, double, double, double, double, double, i32, ptr, i64, i32, i32, i32, i32, i64, i64, i32, i64, i64, i64, i64, i64, i64, i64, double, double, double, double, double, i32, double, double, i32, i32, i32, i32, i32, i32, i32, i32, ptr, i32, ptr, ptr, ptr, ptr, i32, i32, i32 }

; Function Attrs: nounwind uwtable
define void @arkInterpFree(ptr noundef %0, ptr noundef %1) #0 {
  %3 = alloca ptr, align 8
  %4 = alloca ptr, align 8
  store ptr %0, ptr %3, align 8, !tbaa !3
  store ptr %1, ptr %4, align 8, !tbaa !8
  %5 = load ptr, ptr %4, align 8, !tbaa !8
  %6 = icmp eq ptr %5, null
  br i1 %6, label %7, label %8

7:                                                ; preds = %2
  br label %16

8:                                                ; preds = %2
  %9 = load ptr, ptr %4, align 8, !tbaa !8
  %10 = getelementptr inbounds nuw %struct._generic_ARKInterp, ptr %9, i32 0, i32 1
  %11 = load ptr, ptr %10, align 8, !tbaa !15
  %12 = getelementptr inbounds nuw %struct._generic_ARKInterpOps, ptr %11, i32 0, i32 1
  %13 = load ptr, ptr %12, align 8, !tbaa !20
  %14 = load ptr, ptr %3, align 8, !tbaa !3
  %15 = load ptr, ptr %4, align 8, !tbaa !8
  call void %13(ptr noundef %14, ptr noundef %15)
  br label %16

16:                                               ; preds = %8, %7
  ret void
}

; Function Attrs: nounwind uwtable
define i32 @arkInterpInit_Hermite(ptr noundef %0, ptr noundef %1, double noundef %2) #0 {
  %4 = alloca i32, align 4
  %5 = alloca ptr, align 8
  %6 = alloca ptr, align 8
  %7 = alloca double, align 8
  store ptr %0, ptr %5, align 8, !tbaa !3
  store ptr %1, ptr %6, align 8, !tbaa !8
  store double %2, ptr %7, align 8, !tbaa !27
  %8 = load double, ptr %7, align 8, !tbaa !27
  %9 = load ptr, ptr %6, align 8, !tbaa !8
  %10 = getelementptr inbounds nuw %struct._generic_ARKInterp, ptr %9, i32 0, i32 0
  %11 = load ptr, ptr %10, align 8, !tbaa !35
  %12 = getelementptr inbounds nuw %struct._ARKInterpContent_Hermite, ptr %11, i32 0, i32 5
  store double %8, ptr %12, align 8, !tbaa !50
  %13 = load double, ptr %7, align 8, !tbaa !27
  %14 = load ptr, ptr %6, align 8, !tbaa !8
  %15 = getelementptr inbounds nuw %struct._generic_ARKInterp, ptr %14, i32 0, i32 0
  %16 = load ptr, ptr %15, align 8, !tbaa !35
  %17 = getelementptr inbounds nuw %struct._ARKInterpContent_Hermite, ptr %16, i32 0, i32 6
  store double %13, ptr %17, align 8, !tbaa !51
  %18 = load ptr, ptr %6, align 8, !tbaa !8
  %19 = getelementptr inbounds nuw %struct._generic_ARKInterp, ptr %18, i32 0, i32 0
  %20 = load ptr, ptr %19, align 8, !tbaa !35
  %21 = getelementptr inbounds nuw %struct._ARKInterpContent_Hermite, ptr %20, i32 0, i32 7
  store double 0.000000e+00, ptr %21, align 8, !tbaa !52
  %22 = load ptr, ptr %6, align 8, !tbaa !8
  %23 = getelementptr inbounds nuw %struct._generic_ARKInterp, ptr %22, i32 0, i32 0
  %24 = load ptr, ptr %23, align 8, !tbaa !35
  %25 = getelementptr inbounds nuw %struct._ARKInterpContent_Hermite, ptr %24, i32 0, i32 1
  %26 = load ptr, ptr %25, align 8, !tbaa !36
  %27 = icmp eq ptr %26, null
  br i1 %27, label %28, label %43

28:                                               ; preds = %3
  %29 = load ptr, ptr %5, align 8, !tbaa !3
  %30 = load ptr, ptr %5, align 8, !tbaa !3
  %31 = getelementptr inbounds nuw %struct.ARKodeMemRec, ptr %30, i32 0, i32 76
  %32 = load ptr, ptr %31, align 8, !tbaa !53
  %33 = load ptr, ptr %6, align 8, !tbaa !8
  %34 = getelementptr inbounds nuw %struct._generic_ARKInterp, ptr %33, i32 0, i32 0
  %35 = load ptr, ptr %34, align 8, !tbaa !35
  %36 = getelementptr inbounds nuw %struct._ARKInterpContent_Hermite, ptr %35, i32 0, i32 1
  %37 = call i32 @arkAllocVec(ptr noundef %29, ptr noundef %32, ptr noundef %36)
  %38 = icmp ne i32 %37, 0
  br i1 %38, label %42, label %39

39:                                               ; preds = %28
  %40 = load ptr, ptr %5, align 8, !tbaa !3
  %41 = load ptr, ptr %6, align 8, !tbaa !8
  call void @arkInterpFree(ptr noundef %40, ptr noundef %41)
  store i32 -20, ptr %4, align 4
  br label %126

42:                                               ; preds = %28
  br label %43

43:                                               ; preds = %42, %3
  %44 = load ptr, ptr %6, align 8, !tbaa !8
  %45 = getelementptr inbounds nuw %struct._generic_ARKInterp, ptr %44, i32 0, i32 0
  %46 = load ptr, ptr %45, align 8, !tbaa !35
  %47 = getelementptr inbounds nuw %struct._ARKInterpContent_Hermite, ptr %46, i32 0, i32 2
  %48 = load ptr, ptr %47, align 8, !tbaa !38
  %49 = icmp eq ptr %48, null
  br i1 %49, label %50, label %65

50:                                               ; preds = %43
  %51 = load ptr, ptr %5, align 8, !tbaa !3
  %52 = load ptr, ptr %5, align 8, !tbaa !3
  %53 = getelementptr inbounds nuw %struct.ARKodeMemRec, ptr %52, i32 0, i32 76
  %54 = load ptr, ptr %53, align 8, !tbaa !53
  %55 = load ptr, ptr %6, align 8, !tbaa !8
  %56 = getelementptr inbounds nuw %struct._generic_ARKInterp, ptr %55, i32 0, i32 0
  %57 = load ptr, ptr %56, align 8, !tbaa !35
  %58 = getelementptr inbounds nuw %struct._ARKInterpContent_Hermite, ptr %57, i32 0, i32 2
  %59 = call i32 @arkAllocVec(ptr noundef %51, ptr noundef %54, ptr noundef %58)
  %60 = icmp ne i32 %59, 0
  br i1 %60, label %64, label %61

61:                                               ; preds = %50
  %62 = load ptr, ptr %5, align 8, !tbaa !3
  %63 = load ptr, ptr %6, align 8, !tbaa !8
  call void @arkInterpFree(ptr noundef %62, ptr noundef %63)
  store i32 -20, ptr %4, align 4
  br label %126

64:                                               ; preds = %50
  br label %65

65:                                               ; preds = %64, %43
  %66 = load ptr, ptr %6, align 8, !tbaa !8
  %67 = getelementptr inbounds nuw %struct._generic_ARKInterp, ptr %66, i32 0, i32 0
  %68 = load ptr, ptr %67, align 8, !tbaa !35
  %69 = getelementptr inbounds nuw %struct._ARKInterpContent_Hermite, ptr %68, i32 0, i32 0
  %70 = load i32, ptr %69, align 8, !tbaa !41
  %71 = icmp sgt i32 %70, 3
  br i1 %71, label %72, label %94

72:                                               ; preds = %65
  %73 = load ptr, ptr %6, align 8, !tbaa !8
  %74 = getelementptr inbounds nuw %struct._generic_ARKInterp, ptr %73, i32 0, i32 0
  %75 = load ptr, ptr %74, align 8, !tbaa !35
  %76 = getelementptr inbounds nuw %struct._ARKInterpContent_Hermite, ptr %75, i32 0, i32 3
  %77 = load ptr, ptr %76, align 8, !tbaa !39
  %78 = icmp eq ptr %77, null
  br i1 %78, label %79, label %94

79:                                               ; preds = %72
  %80 = load ptr, ptr %5, align 8, !tbaa !3
  %81 = load ptr, ptr %5, align 8, !tbaa !3
  %82 = getelementptr inbounds nuw %struct.ARKodeMemRec, ptr %81, i32 0, i32 76
  %83 = load ptr, ptr %82, align 8, !tbaa !53
  %84 = load ptr, ptr %6, align 8, !tbaa !8
  %85 = getelementptr inbounds nuw %struct._generic_ARKInterp, ptr %84, i32 0, i32 0
  %86 = load ptr, ptr %85, align 8, !tbaa !35
  %87 = getelementptr inbounds nuw %struct._ARKInterpContent_Hermite, ptr %86, i32 0, i32 3
  %88 = call i32 @arkAllocVec(ptr noundef %80, ptr noundef %83, ptr noundef %87)
  %89 = icmp ne i32 %88, 0
  br i1 %89, label %93, label %90

90:                                               ; preds = %79
  %91 = load ptr, ptr %5, align 8, !tbaa !3
  %92 = load ptr, ptr %6, align 8, !tbaa !8
  call void @arkInterpFree(ptr noundef %91, ptr noundef %92)
  store i32 -20, ptr %4, align 4
  br label %126

93:                                               ; preds = %79
  br label %94

94:                                               ; preds = %93, %72, %65
  %95 = load ptr, ptr %6, align 8, !tbaa !8
  %96 = getelementptr inbounds nuw %struct._generic_ARKInterp, ptr %95, i32 0, i32 0
  %97 = load ptr, ptr %96, align 8, !tbaa !35
  %98 = getelementptr inbounds nuw %struct._ARKInterpContent_Hermite, ptr %97, i32 0, i32 0
  %99 = load i32, ptr %98, align 8, !tbaa !41
  %100 = icmp sgt i32 %99, 4
  br i1 %100, label %101, label %123

101:                                              ; preds = %94
  %102 = load ptr, ptr %6, align 8, !tbaa !8
  %103 = getelementptr inbounds nuw %struct._generic_ARKInterp, ptr %102, i32 0, i32 0
  %104 = load ptr, ptr %103, align 8, !tbaa !35
  %105 = getelementptr inbounds nuw %struct._ARKInterpContent_Hermite, ptr %104, i32 0, i32 4
  %106 = load ptr, ptr %105, align 8, !tbaa !40
  %107 = icmp eq ptr %106, null
  br i1 %107, label %108, label %123

108:                                              ; preds = %101
  %109 = load ptr, ptr %5, align 8, !tbaa !3
  %110 = load ptr, ptr %5, align 8, !tbaa !3
  %111 = getelementptr inbounds nuw %struct.ARKodeMemRec, ptr %110, i32 0, i32 76
  %112 = load ptr, ptr %111, align 8, !tbaa !53
  %113 = load ptr, ptr %6, align 8, !tbaa !8
  %114 = getelementptr inbounds nuw %struct._generic_ARKInterp, ptr %113, i32 0, i32 0
  %115 = load ptr, ptr %114, align 8, !tbaa !35
  %116 = getelementptr inbounds nuw %struct._ARKInterpContent_Hermite, ptr %115, i32 0, i32 4
  %117 = call i32 @arkAllocVec(ptr noundef %109, ptr noundef %112, ptr noundef %116)
  %118 = icmp ne i32 %117, 0
  br i1 %118, label %122, label %119

119:                                              ; preds = %108
  %120 = load ptr, ptr %5, align 8, !tbaa !3
  %121 = load ptr, ptr %6, align 8, !tbaa !8
  call void @arkInterpFree(ptr noundef %120, ptr noundef %121)
  store i32 -20, ptr %4, align 4
  br label %126

122:                                              ; preds = %108
  br label %123

123:                                              ; preds = %122, %101, %94
  %124 = load ptr, ptr %5, align 8, !tbaa !3
  %125 = getelementptr inbounds nuw %struct.ARKodeMemRec, ptr %124, i32 0, i32 132
  store i32 1, ptr %125, align 4, !tbaa !54
  store i32 0, ptr %4, align 4
  br label %126

126:                                              ; preds = %123, %119, %90, %61, %39
  %127 = load i32, ptr %4, align 4
  ret i32 %127
}