; Function Attrs: nounwind uwtable
define range(i32 -20, 1) i32 @arkInterpInit_Hermite(ptr noundef %0, ptr noundef %1, double noundef %2) #0 {
  %4 = load ptr, ptr %1, align 8, !tbaa !17
  %5 = getelementptr inbounds nuw i8, ptr %4, i64 40
  store double %2, ptr %5, align 8, !tbaa !33
  %6 = getelementptr inbounds nuw i8, ptr %4, i64 48
  store double %2, ptr %6, align 8, !tbaa !34
  %7 = getelementptr inbounds nuw i8, ptr %4, i64 56
  store double 0.000000e+00, ptr %7, align 8, !tbaa !35
  %8 = getelementptr inbounds nuw i8, ptr %4, i64 8
  %9 = load ptr, ptr %8, align 8, !tbaa !36
  %10 = icmp eq ptr %9, null
  br i1 %10, label %11, label %19

11:                                               ; preds = %3
  %12 = getelementptr inbounds nuw i8, ptr %0, i64 592
  %13 = load ptr, ptr %12, align 8, !tbaa !40
  %14 = tail call i32 @arkAllocVec(ptr noundef %0, ptr noundef %13, ptr noundef nonnull %8) #14
  %.not = icmp eq i32 %14, 0
  br i1 %.not, label %arkInterpFree.exit, label %._crit_edge

._crit_edge:                                      ; preds = %11
  %.pre = load ptr, ptr %1, align 8, !tbaa !17
  br label %19

arkInterpFree.exit:                               ; preds = %11
  %15 = getelementptr inbounds nuw i8, ptr %1, i64 8
  %16 = load ptr, ptr %15, align 8, !tbaa !3
  %17 = getelementptr inbounds nuw i8, ptr %16, i64 8
  %18 = load ptr, ptr %17, align 8, !tbaa !11
  tail call void %18(ptr noundef nonnull %0, ptr noundef nonnull %1) #14
  br label %65

19:                                               ; preds = %._crit_edge, %3
  %20 = phi ptr [ %.pre, %._crit_edge ], [ %4, %3 ]
  %21 = getelementptr inbounds nuw i8, ptr %20, i64 16
  %22 = load ptr, ptr %21, align 8, !tbaa !37
  %23 = icmp eq ptr %22, null
  br i1 %23, label %24, label %32

24:                                               ; preds = %19
  %25 = getelementptr inbounds nuw i8, ptr %0, i64 592
  %26 = load ptr, ptr %25, align 8, !tbaa !40
  %27 = tail call i32 @arkAllocVec(ptr noundef %0, ptr noundef %26, ptr noundef nonnull %21) #14
  %.not32 = icmp eq i32 %27, 0
  br i1 %.not32, label %arkInterpFree.exit35, label %._crit_edge38

._crit_edge38:                                    ; preds = %24
  %.pre39 = load ptr, ptr %1, align 8, !tbaa !17
  br label %32

arkInterpFree.exit35:                             ; preds = %24
  %28 = getelementptr inbounds nuw i8, ptr %1, i64 8
  %29 = load ptr, ptr %28, align 8, !tbaa !3
  %30 = getelementptr inbounds nuw i8, ptr %29, i64 8
  %31 = load ptr, ptr %30, align 8, !tbaa !11
  tail call void %31(ptr noundef nonnull %0, ptr noundef nonnull %1) #14
  br label %65

32:                                               ; preds = %._crit_edge38, %19
  %33 = phi ptr [ %.pre39, %._crit_edge38 ], [ %20, %19 ]
  %34 = load i32, ptr %33, align 8, !tbaa !18
  %35 = icmp sgt i32 %34, 3
  br i1 %35, label %36, label %.thread

36:                                               ; preds = %32
  %37 = getelementptr inbounds nuw i8, ptr %33, i64 24
  %38 = load ptr, ptr %37, align 8, !tbaa !38
  %39 = icmp eq ptr %38, null
  br i1 %39, label %40, label %48

40:                                               ; preds = %36
  %41 = getelementptr inbounds nuw i8, ptr %0, i64 592
  %42 = load ptr, ptr %41, align 8, !tbaa !40
  %43 = tail call i32 @arkAllocVec(ptr noundef %0, ptr noundef %42, ptr noundef nonnull %37) #14
  %.not33 = icmp eq i32 %43, 0
  br i1 %.not33, label %arkInterpFree.exit36, label %._crit_edge40

._crit_edge40:                                    ; preds = %40
  %.pre41 = load ptr, ptr %1, align 8, !tbaa !17
  %.pre42 = load i32, ptr %.pre41, align 8, !tbaa !18
  br label %48

arkInterpFree.exit36:                             ; preds = %40
  %44 = getelementptr inbounds nuw i8, ptr %1, i64 8
  %45 = load ptr, ptr %44, align 8, !tbaa !3
  %46 = getelementptr inbounds nuw i8, ptr %45, i64 8
  %47 = load ptr, ptr %46, align 8, !tbaa !11
  tail call void %47(ptr noundef nonnull %0, ptr noundef nonnull %1) #14
  br label %65

48:                                               ; preds = %._crit_edge40, %36
  %49 = phi i32 [ %.pre42, %._crit_edge40 ], [ %34, %36 ]
  %50 = phi ptr [ %.pre41, %._crit_edge40 ], [ %33, %36 ]
  %51 = icmp sgt i32 %49, 4
  br i1 %51, label %52, label %.thread

52:                                               ; preds = %48
  %53 = getelementptr inbounds nuw i8, ptr %50, i64 32
  %54 = load ptr, ptr %53, align 8, !tbaa !39
  %55 = icmp eq ptr %54, null
  br i1 %55, label %56, label %.thread

56:                                               ; preds = %52
  %57 = getelementptr inbounds nuw i8, ptr %0, i64 592
  %58 = load ptr, ptr %57, align 8, !tbaa !40
  %59 = tail call i32 @arkAllocVec(ptr noundef %0, ptr noundef %58, ptr noundef nonnull %53) #14
  %.not34 = icmp eq i32 %59, 0
  br i1 %.not34, label %arkInterpFree.exit37, label %.thread

arkInterpFree.exit37:                             ; preds = %56
  %60 = getelementptr inbounds nuw i8, ptr %1, i64 8
  %61 = load ptr, ptr %60, align 8, !tbaa !3
  %62 = getelementptr inbounds nuw i8, ptr %61, i64 8
  %63 = load ptr, ptr %62, align 8, !tbaa !11
  tail call void %63(ptr noundef nonnull %0, ptr noundef nonnull %1) #14
  br label %65

.thread:                                          ; preds = %32, %56, %52, %48
  %64 = getelementptr inbounds nuw i8, ptr %0, i64 980
  store i32 1, ptr %64, align 4, !tbaa !41
  br label %65

65:                                               ; preds = %.thread, %arkInterpFree.exit37, %arkInterpFree.exit36, %arkInterpFree.exit35, %arkInterpFree.exit
  %.0 = phi i32 [ 0, %.thread ], [ -20, %arkInterpFree.exit37 ], [ -20, %arkInterpFree.exit36 ], [ -20, %arkInterpFree.exit35 ], [ -20, %arkInterpFree.exit ]
  ret i32 %.0
}